target datalayout = "e-m:e-p270:32:32-p271:32:32-p272:64:64-i64:64-i128:128-f80:128-n8:16:32:64-S128"
target triple = "x86_64-pc-linux-gnu"

%struct.RString = type { %struct.RBasic, i64, %union.anon }
%struct.RBasic = type { i64, i64 }
%union.anon = type { %struct.anon }
%struct.anon = type { ptr, %union.anon.0 }
%union.anon.0 = type { i64 }
%struct.OnigEncodingTypeST = type { ptr, ptr, i32, i32, ptr, ptr, ptr, ptr, ptr, ptr, ptr, ptr, ptr, ptr, ptr, ptr, ptr, i32, i32 }
%struct.anon.1 = type { [1 x i8] }

; Function Attrs: inlinehint nounwind sspstrong memory(argmem: readwrite, inaccessiblemem: readwrite) uwtable
define internal void @rbimpl_fl_set_raw_raw(ptr noundef %0, i64 noundef %1) #5 {
  %3 = alloca ptr, align 8
  %4 = alloca i64, align 8
  store ptr %0, ptr %3, align 8, !tbaa !185
  store i64 %1, ptr %4, align 8, !tbaa !7
  %5 = load i64, ptr %4, align 8, !tbaa !7
  %6 = load ptr, ptr %3, align 8, !tbaa !185
  %7 = getelementptr inbounds nuw %struct.RBasic, ptr %6, i32 0, i32 0
  %8 = load i64, ptr %7, align 8, !tbaa !23
  %9 = or i64 %8, %5
  store i64 %9, ptr %7, align 8, !tbaa !23
  ret void
}

; Function Attrs: inlinehint nounwind sspstrong memory(argmem: readwrite, inaccessiblemem: readwrite) uwtable
define internal void @rbimpl_fl_unset_raw_raw(ptr noundef %0, i64 noundef %1) #5 {
  %3 = alloca ptr, align 8
  %4 = alloca i64, align 8
  store ptr %0, ptr %3, align 8, !tbaa !185
  store i64 %1, ptr %4, align 8, !tbaa !7
  %5 = load i64, ptr %4, align 8, !tbaa !7
  %6 = xor i64 %5, -1
  %7 = load ptr, ptr %3, align 8, !tbaa !185
  %8 = getelementptr inbounds nuw %struct.RBasic, ptr %7, i32 0, i32 0
  %9 = load i64, ptr %8, align 8, !tbaa !23
  %10 = and i64 %9, %6
  store i64 %10, ptr %8, align 8, !tbaa !23
  ret void
}

; Function Attrs: inlinehint nounwind sspstrong uwtable
define internal void @RB_FL_SET_RAW(i64 noundef %0, i64 noundef %1) #3 {
  %3 = alloca i64, align 8
  %4 = alloca i64, align 8
  store i64 %0, ptr %3, align 8, !tbaa !7
  store i64 %1, ptr %4, align 8, !tbaa !7
  %5 = load i64, ptr %3, align 8, !tbaa !7
  %6 = inttoptr i64 %5 to ptr
  %7 = load i64, ptr %4, align 8, !tbaa !7
  call void @rbimpl_fl_set_raw_raw(ptr noundef %6, i64 noundef %7) #30
  ret void
}

; Function Attrs: inlinehint nounwind sspstrong uwtable
define internal void @RB_FL_UNSET_RAW(i64 noundef %0, i64 noundef %1) #3 {
  %3 = alloca i64, align 8
  %4 = alloca i64, align 8
  store i64 %0, ptr %3, align 8, !tbaa !7
  store i64 %1, ptr %4, align 8, !tbaa !7
  %5 = load i64, ptr %3, align 8, !tbaa !7
  %6 = inttoptr i64 %5 to ptr
  %7 = load i64, ptr %4, align 8, !tbaa !7
  call void @rbimpl_fl_unset_raw_raw(ptr noundef %6, i64 noundef %7) #30
  ret void
}

; Function Attrs: inlinehint nounwind sspstrong willreturn memory(read) uwtable
define internal i64 @RB_FL_TEST_RAW(i64 noundef %0, i64 noundef %1) #1 {
  %3 = alloca i64, align 8
  %4 = alloca i64, align 8
  store i64 %0, ptr %3, align 8, !tbaa !7
  store i64 %1, ptr %4, align 8, !tbaa !7
  %5 = load i64, ptr %3, align 8, !tbaa !7
  %6 = inttoptr i64 %5 to ptr
  %7 = getelementptr inbounds nuw %struct.RBasic, ptr %6, i32 0, i32 0
  %8 = load i64, ptr %7, align 8, !tbaa !23
  %9 = load i64, ptr %4, align 8, !tbaa !7
  %10 = and i64 %8, %9
  ret i64 %10
}

; Function Attrs: inlinehint nounwind sspstrong uwtable
define internal void @RB_ENC_CODERANGE_SET(i64 noundef %0, i32 noundef %1) #3 {
  %3 = alloca i64, align 8
  %4 = alloca i32, align 4
  store i64 %0, ptr %3, align 8, !tbaa !7
  store i32 %1, ptr %4, align 4, !tbaa !22
  %5 = load i64, ptr %3, align 8, !tbaa !7
  call void @RB_FL_UNSET_RAW(i64 noundef %5, i64 noundef 3145728)
  %6 = load i64, ptr %3, align 8, !tbaa !7
  %7 = load i32, ptr %4, align 4, !tbaa !22
  %8 = zext i32 %7 to i64
  call void @RB_FL_SET_RAW(i64 noundef %6, i64 noundef %8)
  ret void
}

; Function Attrs: nounwind sspstrong uwtable
define internal i32 @enc_coderange_scan(i64 noundef %0, ptr noundef %1) #0 {
  %3 = alloca i64, align 8
  %4 = alloca ptr, align 8
  store i64 %0, ptr %3, align 8, !tbaa !7
  store ptr %1, ptr %4, align 8, !tbaa !15
  %5 = load i64, ptr %3, align 8, !tbaa !7
  %6 = call ptr @RSTRING_PTR(i64 noundef %5)
  %7 = load i64, ptr %3, align 8, !tbaa !7
  %8 = call i64 @RSTRING_LEN(i64 noundef %7) #28
  %9 = load ptr, ptr %4, align 8, !tbaa !15
  %10 = call i32 @coderange_scan(ptr noundef %6, i64 noundef %8, ptr noundef %9)
  ret i32 %10
}

; Function Attrs: inlinehint nounwind sspstrong willreturn memory(read) uwtable
define internal i32 @RB_ENC_CODERANGE(i64 noundef %0) #1 {
  %2 = alloca i64, align 8
  %3 = alloca i64, align 8
  store i64 %0, ptr %2, align 8, !tbaa !7
  call void @llvm.lifetime.start.p0(i64 8, ptr %3) #29
  %4 = load i64, ptr %2, align 8, !tbaa !7
  %5 = call i64 @RB_FL_TEST_RAW(i64 noundef %4, i64 noundef 3145728) #28
  store i64 %5, ptr %3, align 8, !tbaa !7
  %6 = load i64, ptr %3, align 8, !tbaa !7
  %7 = trunc i64 %6 to i32
  call void @llvm.lifetime.end.p0(i64 8, ptr %3) #29
  ret i32 %7
}

; Function Attrs: inlinehint nounwind sspstrong willreturn memory(read) uwtable
define internal zeroext i1 @RB_FL_ANY_RAW(i64 noundef %0, i64 noundef %1) #1 {
  %3 = alloca i64, align 8
  %4 = alloca i64, align 8
  store i64 %0, ptr %3, align 8, !tbaa !7
  store i64 %1, ptr %4, align 8, !tbaa !7
  %5 = load i64, ptr %3, align 8, !tbaa !7
  %6 = load i64, ptr %4, align 8, !tbaa !7
  %7 = call i64 @RB_FL_TEST_RAW(i64 noundef %5, i64 noundef %6) #28
  %8 = icmp ne i64 %7, 0
  ret i1 %8
}

; Function Attrs: inlinehint nounwind sspstrong uwtable
define internal i32 @RB_ENCODING_GET_INLINED(i64 noundef %0) #3 {
  %2 = alloca i64, align 8
  %3 = alloca i64, align 8
  store i64 %0, ptr %2, align 8, !tbaa !7
  call void @llvm.lifetime.start.p0(i64 8, ptr %3) #29
  %4 = load i64, ptr %2, align 8, !tbaa !7
  %5 = call i64 @RB_FL_TEST_RAW(i64 noundef %4, i64 noundef 532676608) #28
  %6 = lshr i64 %5, 22
  store i64 %6, ptr %3, align 8, !tbaa !7
  %7 = load i64, ptr %3, align 8, !tbaa !7
  %8 = trunc i64 %7 to i32
  call void @llvm.lifetime.end.p0(i64 8, ptr %3) #29
  ret i32 %8
}

; Function Attrs: inlinehint nounwind sspstrong uwtable
define internal zeroext i1 @rb_enc_isprint(i32 noundef %0, ptr noundef %1) #3 {
  %3 = alloca i32, align 4
  %4 = alloca ptr, align 8
  store i32 %0, ptr %3, align 4, !tbaa !22
  store ptr %1, ptr %4, align 8, !tbaa !15
  %5 = load ptr, ptr %4, align 8, !tbaa !15
  %6 = getelementptr inbounds nuw %struct.OnigEncodingTypeST, ptr %5, i32 0, i32 12
  %7 = load ptr, ptr %6, align 8, !tbaa !124
  %8 = load i32, ptr %3, align 4, !tbaa !22
  %9 = load ptr, ptr %4, align 8, !tbaa !15
  %10 = call i32 %7(i32 noundef %8, i32 noundef 7, ptr noundef %9)
  %11 = icmp ne i32 %10, 0
  ret i1 %11
}

; Function Attrs: inlinehint nounwind sspstrong uwtable
define internal i32 @rb_enc_mbc_to_codepoint(ptr noundef %0, ptr noundef %1, ptr noundef %2) #3 {
  %4 = alloca ptr, align 8
  %5 = alloca ptr, align 8
  %6 = alloca ptr, align 8
  %7 = alloca ptr, align 8
  %8 = alloca ptr, align 8
  store ptr %0, ptr %4, align 8, !tbaa !24
  store ptr %1, ptr %5, align 8, !tbaa !24
  store ptr %2, ptr %6, align 8, !tbaa !15
  call void @llvm.lifetime.start.p0(i64 8, ptr %7) #29
  %9 = load ptr, ptr %4, align 8, !tbaa !24
  store ptr %9, ptr %7, align 8, !tbaa !24
  call void @llvm.lifetime.start.p0(i64 8, ptr %8) #29
  %10 = load ptr, ptr %5, align 8, !tbaa !24
  store ptr %10, ptr %8, align 8, !tbaa !24
  %11 = load ptr, ptr %6, align 8, !tbaa !15
  %12 = getelementptr inbounds nuw %struct.OnigEncodingTypeST, ptr %11, i32 0, i32 5
  %13 = load ptr, ptr %12, align 8, !tbaa !121
  %14 = load ptr, ptr %7, align 8, !tbaa !24
  %15 = load ptr, ptr %8, align 8, !tbaa !24
  %16 = load ptr, ptr %6, align 8, !tbaa !15
  %17 = call i32 %13(ptr noundef %14, ptr noundef %15, ptr noundef %16)
  call void @llvm.lifetime.end.p0(i64 8, ptr %8) #29
  call void @llvm.lifetime.end.p0(i64 8, ptr %7) #29
  ret i32 %17
}

; Function Attrs: nounwind sspstrong uwtable
define dso_local i32 @rb_enc_str_coderange(i64 noundef %0) #0 {
  %2 = alloca i64, align 8
  %3 = alloca i32, align 4
  store i64 %0, ptr %2, align 8, !tbaa !7
  call void @llvm.lifetime.start.p0(i64 4, ptr %3) #29
  %4 = load i64, ptr %2, align 8, !tbaa !7
  %5 = call i32 @RB_ENC_CODERANGE(i64 noundef %4) #28
  store i32 %5, ptr %3, align 4, !tbaa !22
  %6 = load i32, ptr %3, align 4, !tbaa !22
  %7 = icmp eq i32 %6, 0
  br i1 %7, label %8, label %15

8:                                                ; preds = %1
  %9 = load i64, ptr %2, align 8, !tbaa !7
  %10 = load i64, ptr %2, align 8, !tbaa !7
  %11 = call ptr @get_encoding(i64 noundef %10)
  %12 = call i32 @enc_coderange_scan(i64 noundef %9, ptr noundef %11)
  store i32 %12, ptr %3, align 4, !tbaa !22
  %13 = load i64, ptr %2, align 8, !tbaa !7
  %14 = load i32, ptr %3, align 4, !tbaa !22
  call void @RB_ENC_CODERANGE_SET(i64 noundef %13, i32 noundef %14)
  br label %15

15:                                               ; preds = %8, %1
  %16 = load i32, ptr %3, align 4, !tbaa !22
  call void @llvm.lifetime.end.p0(i64 4, ptr %3) #29
  ret i32 %16
}

; Function Attrs: inlinehint nounwind sspstrong willreturn memory(read, argmem: readwrite) uwtable
define internal void @rbimpl_rstring_getmem(ptr dead_on_unwind noalias writable sret(%struct.RString) align 8 %0, i64 noundef %1) #11 {
  %3 = alloca i64, align 8
  store i64 %1, ptr %3, align 8, !tbaa !7
  %4 = load i64, ptr %3, align 8, !tbaa !7
  %5 = call zeroext i1 @RB_FL_ANY_RAW(i64 noundef %4, i64 noundef 8192) #28
  br i1 %5, label %6, label %9

6:                                                ; preds = %2
  %7 = load i64, ptr %3, align 8, !tbaa !7
  %8 = inttoptr i64 %7 to ptr
  call void @llvm.memcpy.p0.p0.i64(ptr align 8 %0, ptr align 8 %8, i64 40, i1 false), !tbaa.struct !58
  br label %20

9:                                                ; preds = %2
  %10 = load i64, ptr %3, align 8, !tbaa !7
  %11 = call i64 @RSTRING_LEN(i64 noundef %10) #28
  %12 = getelementptr inbounds nuw %struct.RString, ptr %0, i32 0, i32 1
  store i64 %11, ptr %12, align 8, !tbaa !11
  %13 = load i64, ptr %3, align 8, !tbaa !7
  %14 = inttoptr i64 %13 to ptr
  %15 = getelementptr inbounds nuw %struct.RString, ptr %14, i32 0, i32 2
  %16 = getelementptr inbounds nuw %struct.anon.1, ptr %15, i32 0, i32 0
  %17 = getelementptr inbounds [1 x i8], ptr %16, i64 0, i64 0
  %18 = getelementptr inbounds nuw %struct.RString, ptr %0, i32 0, i32 2
  %19 = getelementptr inbounds nuw %struct.anon, ptr %18, i32 0, i32 0
  store ptr %17, ptr %19, align 8, !tbaa !14
  br label %20

20:                                               ; preds = %9, %6
  ret void
}

; Function Attrs: inlinehint nounwind sspstrong uwtable
define internal i32 @RB_ENCODING_GET(i64 noundef %0) #3 {
  %2 = alloca i32, align 4
  %3 = alloca i64, align 8
  %4 = alloca i32, align 4
  %5 = alloca i32, align 4
  store i64 %0, ptr %3, align 8, !tbaa !7
  call void @llvm.lifetime.start.p0(i64 4, ptr %4) #29
  %6 = load i64, ptr %3, align 8, !tbaa !7
  %7 = call i32 @RB_ENCODING_GET_INLINED(i64 noundef %6)
  store i32 %7, ptr %4, align 4, !tbaa !22
  %8 = load i32, ptr %4, align 4, !tbaa !22
  %9 = icmp eq i32 %8, 127
  br i1 %9, label %10, label %13

10:                                               ; preds = %1
  %11 = load i64, ptr %3, align 8, !tbaa !7
  %12 = call i32 @rb_enc_get_index(i64 noundef %11)
  store i32 %12, ptr %2, align 4
  store i32 1, ptr %5, align 4
  br label %15

13:                                               ; preds = %1
  %14 = load i32, ptr %4, align 4, !tbaa !22
  store i32 %14, ptr %2, align 4
  store i32 1, ptr %5, align 4
  br label %15

15:                                               ; preds = %13, %10
  call void @llvm.lifetime.end.p0(i64 4, ptr %4) #29
  %16 = load i32, ptr %2, align 4
  ret i32 %16
}

; Function Attrs: nounwind sspstrong uwtable
define internal i32 @sym_printable(ptr noundef %0, ptr noundef %1, ptr noundef %2) #0 {
  %4 = alloca i32, align 4
  %5 = alloca ptr, align 8
  %6 = alloca ptr, align 8
  %7 = alloca ptr, align 8
  %8 = alloca i32, align 4
  %9 = alloca i32, align 4
  %10 = alloca i32, align 4
  store ptr %0, ptr %5, align 8, !tbaa !24
  store ptr %1, ptr %6, align 8, !tbaa !24
  store ptr %2, ptr %7, align 8, !tbaa !15
  br label %11

11:                                               ; preds = %40, %3
  %12 = load ptr, ptr %5, align 8, !tbaa !24
  %13 = load ptr, ptr %6, align 8, !tbaa !24
  %14 = icmp ult ptr %12, %13
  br i1 %14, label %15, label %41

15:                                               ; preds = %11
  call void @llvm.lifetime.start.p0(i64 4, ptr %8) #29
  call void @llvm.lifetime.start.p0(i64 4, ptr %9) #29
  %16 = load ptr, ptr %5, align 8, !tbaa !24
  %17 = load ptr, ptr %6, align 8, !tbaa !24
  %18 = load ptr, ptr %7, align 8, !tbaa !15
  %19 = call i32 @rb_enc_precise_mbclen(ptr noundef %16, ptr noundef %17, ptr noundef %18)
  store i32 %19, ptr %9, align 4, !tbaa !22
  %20 = load i32, ptr %9, align 4, !tbaa !22
  %21 = icmp slt i32 0, %20
  br i1 %21, label %23, label %22

22:                                               ; preds = %15
  store i32 0, ptr %4, align 4
  store i32 1, ptr %10, align 4
  br label %38

23:                                               ; preds = %15
  %24 = load i32, ptr %9, align 4, !tbaa !22
  store i32 %24, ptr %8, align 4, !tbaa !22
  %25 = load ptr, ptr %5, align 8, !tbaa !24
  %26 = load ptr, ptr %6, align 8, !tbaa !24
  %27 = load ptr, ptr %7, align 8, !tbaa !15
  %28 = call i32 @rb_enc_mbc_to_codepoint(ptr noundef %25, ptr noundef %26, ptr noundef %27)
  store i32 %28, ptr %9, align 4, !tbaa !22
  %29 = load i32, ptr %9, align 4, !tbaa !22
  %30 = load ptr, ptr %7, align 8, !tbaa !15
  %31 = call zeroext i1 @rb_enc_isprint(i32 noundef %29, ptr noundef %30)
  br i1 %31, label %33, label %32

32:                                               ; preds = %23
  store i32 0, ptr %4, align 4
  store i32 1, ptr %10, align 4
  br label %38

33:                                               ; preds = %23
  %34 = load i32, ptr %8, align 4, !tbaa !22
  %35 = load ptr, ptr %5, align 8, !tbaa !24
  %36 = sext i32 %34 to i64
  %37 = getelementptr i8, ptr %35, i64 %36
  store ptr %37, ptr %5, align 8, !tbaa !24
  store i32 0, ptr %10, align 4
  br label %38

38:                                               ; preds = %33, %32, %22
  call void @llvm.lifetime.end.p0(i64 4, ptr %9) #29
  call void @llvm.lifetime.end.p0(i64 4, ptr %8) #29
  %39 = load i32, ptr %10, align 4
  switch i32 %39, label %44 [
    i32 0, label %40
    i32 1, label %42
  ]

40:                                               ; preds = %38
  br label %11, !llvm.loop !146

41:                                               ; preds = %11
  store i32 1, ptr %4, align 4
  br label %42

42:                                               ; preds = %41, %38
  %43 = load i32, ptr %4, align 4
  ret i32 %43

44:                                               ; preds = %38
  unreachable
}

; Function Attrs: nounwind sspstrong uwtable
define internal i64 @rb_str_is_ascii_only_p(i64 noundef %0) #0 {
  %2 = alloca i64, align 8
  %3 = alloca i32, align 4
  store i64 %0, ptr %2, align 8, !tbaa !7
  call void @llvm.lifetime.start.p0(i64 4, ptr %3) #29
  %4 = load i64, ptr %2, align 8, !tbaa !7
  %5 = call i32 @rb_enc_str_coderange(i64 noundef %4)
  store i32 %5, ptr %3, align 4, !tbaa !22
  %6 = load i32, ptr %3, align 4, !tbaa !22
  %7 = icmp eq i32 %6, 1048576
  %8 = select i1 %7, i64 20, i64 0
  call void @llvm.lifetime.end.p0(i64 4, ptr %3) #29
  ret i64 %8
}

; Function Attrs: inlinehint nounwind sspstrong willreturn memory(read) uwtable
define internal i64 @RSTRING_LEN(i64 noundef %0) #1 {
  %2 = alloca i64, align 8
  store i64 %0, ptr %2, align 8, !tbaa !7
  %3 = load i64, ptr %2, align 8, !tbaa !7
  %4 = inttoptr i64 %3 to ptr
  %5 = getelementptr inbounds nuw %struct.RString, ptr %4, i32 0, i32 1
  %6 = load i64, ptr %5, align 8, !tbaa !11
  ret i64 %6
}

; Function Attrs: inlinehint nounwind sspstrong uwtable
define internal ptr @RSTRING_PTR(i64 noundef %0) #3 {
  %2 = alloca i64, align 8
  %3 = alloca ptr, align 8
  %4 = alloca %struct.RString, align 8
  store i64 %0, ptr %2, align 8, !tbaa !7
  call void @llvm.lifetime.start.p0(i64 8, ptr %3) #29
  %5 = load i64, ptr %2, align 8, !tbaa !7
  call void @rbimpl_rstring_getmem(ptr dead_on_unwind writable sret(%struct.RString) align 8 %4, i64 noundef %5) #31
  %6 = getelementptr inbounds nuw %struct.RString, ptr %4, i32 0, i32 2
  %7 = getelementptr inbounds nuw %struct.anon, ptr %6, i32 0, i32 0
  %8 = load ptr, ptr %7, align 8, !tbaa !14
  store ptr %8, ptr %3, align 8, !tbaa !24
  %9 = load ptr, ptr %3, align 8, !tbaa !24
  call void @llvm.lifetime.end.p0(i64 8, ptr %3) #29
  ret ptr %9
}

; Function Attrs: nounwind sspstrong uwtable
define internal ptr @get_encoding(i64 noundef %0) #0 {
  %2 = alloca i64, align 8
  store i64 %0, ptr %2, align 8, !tbaa !7
  %3 = load i64, ptr %2, align 8, !tbaa !7
  %4 = call i32 @RB_ENCODING_GET(i64 noundef %3)
  %5 = call ptr @rb_enc_from_index(i32 noundef %4)
  ret ptr %5
}

; Function Attrs: nounwind sspstrong uwtable
define hidden i32 @rb_str_symname_p(i64 noundef %0) #0 {
  %2 = alloca i32, align 4
  %3 = alloca i64, align 8
  %4 = alloca ptr, align 8
  %5 = alloca ptr, align 8
  %6 = alloca i64, align 8
  %7 = alloca ptr, align 8
  %8 = alloca i32, align 4
  store i64 %0, ptr %3, align 8, !tbaa !7
  call void @llvm.lifetime.start.p0(i64 8, ptr %4) #29
  call void @llvm.lifetime.start.p0(i64 8, ptr %5) #29
  call void @llvm.lifetime.start.p0(i64 8, ptr %6) #29
  call void @llvm.lifetime.start.p0(i64 8, ptr %7) #29
  %9 = call ptr @rb_default_internal_encoding()
  store ptr %9, ptr %7, align 8, !tbaa !15
  %10 = load ptr, ptr %7, align 8, !tbaa !15
  %11 = icmp eq ptr %10, null
  br i1 %11, label %12, label %14

12:                                               ; preds = %1
  %13 = call ptr @rb_default_external_encoding()
  store ptr %13, ptr %7, align 8, !tbaa !15
  br label %14

14:                                               ; preds = %12, %1
  %15 = load i64, ptr %3, align 8, !tbaa !7
  %16 = call ptr @get_encoding(i64 noundef %15)
  store ptr %16, ptr %4, align 8, !tbaa !15
  %17 = load i64, ptr %3, align 8, !tbaa !7
  %18 = call ptr @RSTRING_PTR(i64 noundef %17)
  store ptr %18, ptr %5, align 8, !tbaa !24
  %19 = load i64, ptr %3, align 8, !tbaa !7
  %20 = call i64 @RSTRING_LEN(i64 noundef %19) #28
  store i64 %20, ptr %6, align 8, !tbaa !7
  %21 = load ptr, ptr %7, align 8, !tbaa !15
  %22 = load ptr, ptr %4, align 8, !tbaa !15
  %23 = icmp ne ptr %21, %22
  br i1 %23, label %24, label %28

24:                                               ; preds = %14
  %25 = load i64, ptr %3, align 8, !tbaa !7
  %26 = call i64 @rb_str_is_ascii_only_p(i64 noundef %25)
  %27 = icmp ne i64 %26, 0
  br i1 %27, label %28, label %47

28:                                               ; preds = %24, %14
  %29 = load i64, ptr %6, align 8, !tbaa !7
  %30 = load ptr, ptr %5, align 8, !tbaa !24
  %31 = call i64 @strlen(ptr noundef %30) #28
  %32 = icmp ne i64 %29, %31
  br i1 %32, label %47, label %33

33:                                               ; preds = %28
  %34 = load ptr, ptr %5, align 8, !tbaa !24
  %35 = load i64, ptr %6, align 8, !tbaa !7
  %36 = load ptr, ptr %4, align 8, !tbaa !15
  %37 = call i32 @rb_enc_symname2_p(ptr noundef %34, i64 noundef %35, ptr noundef %36)
  %38 = icmp ne i32 %37, 0
  br i1 %38, label %39, label %47

39:                                               ; preds = %33
  %40 = load ptr, ptr %5, align 8, !tbaa !24
  %41 = load ptr, ptr %5, align 8, !tbaa !24
  %42 = load i64, ptr %6, align 8, !tbaa !7
  %43 = getelementptr i8, ptr %41, i64 %42
  %44 = load ptr, ptr %4, align 8, !tbaa !15
  %45 = call i32 @sym_printable(ptr noundef %40, ptr noundef %43, ptr noundef %44)
  %46 = icmp ne i32 %45, 0
  br i1 %46, label %48, label %47

47:                                               ; preds = %39, %33, %28, %24
  store i32 0, ptr %2, align 4
  store i32 1, ptr %8, align 4
  br label %49

48:                                               ; preds = %39
  store i32 1, ptr %2, align 4
  store i32 1, ptr %8, align 4
  br label %49

49:                                               ; preds = %48, %47
  call void @llvm.lifetime.end.p0(i64 8, ptr %7) #29
  call void @llvm.lifetime.end.p0(i64 8, ptr %6) #29
  call void @llvm.lifetime.end.p0(i64 8, ptr %5) #29
  call void @llvm.lifetime.end.p0(i64 8, ptr %4) #29
  %50 = load i32, ptr %2, align 4
  ret i32 %50
}