; Function Attrs: nounwind sspstrong uwtable
define hidden range(i32 0, 2) i32 @rb_str_symname_p(i64 noundef %0) local_unnamed_addr #1 {
  %2 = tail call ptr @rb_default_internal_encoding() #29
  %3 = icmp eq ptr %2, null
  br i1 %3, label %4, label %6

4:                                                ; preds = %1
  %5 = tail call ptr @rb_default_external_encoding() #29
  br label %6

6:                                                ; preds = %4, %1
  %.0 = phi ptr [ %5, %4 ], [ %2, %1 ]
  %7 = inttoptr i64 %0 to ptr
  %8 = load i64, ptr %7, align 8, !tbaa !7
  %9 = trunc i64 %8 to i32
  %10 = lshr i32 %9, 22
  %11 = and i32 %10, 127
  %12 = icmp eq i32 %11, 127
  br i1 %12, label %13, label %get_encoding.exit

13:                                               ; preds = %6
  %14 = tail call i32 @rb_enc_get_index(i64 noundef %0) #29
  br label %get_encoding.exit

get_encoding.exit:                                ; preds = %6, %13
  %.0.i.i = phi i32 [ %14, %13 ], [ %11, %6 ]
  %15 = tail call ptr @rb_enc_from_index(i32 noundef %.0.i.i) #29
  %16 = load i64, ptr %7, align 8, !tbaa !7, !noalias !511
  %17 = and i64 %16, 8192
  %.not.i.i = icmp eq i64 %17, 0
  %18 = getelementptr inbounds nuw i8, ptr %7, i64 24
  br i1 %.not.i.i, label %RSTRING_PTR.exit, label %19

19:                                               ; preds = %get_encoding.exit
  %.sroa.2.0.copyload.i = load ptr, ptr %18, align 8
  br label %RSTRING_PTR.exit

RSTRING_PTR.exit:                                 ; preds = %get_encoding.exit, %19
  %.sroa.2.0.i = phi ptr [ %.sroa.2.0.copyload.i, %19 ], [ %18, %get_encoding.exit ]
  %20 = getelementptr inbounds nuw i8, ptr %7, i64 16
  %21 = load i64, ptr %20, align 8, !tbaa !12
  %.not = icmp eq ptr %.0, %15
  br i1 %.not, label %42, label %22

22:                                               ; preds = %RSTRING_PTR.exit
  %23 = trunc i64 %16 to i32
  %24 = and i32 %23, 3145728
  %25 = icmp eq i32 %24, 0
  br i1 %25, label %26, label %rb_str_is_ascii_only_p.exit

26:                                               ; preds = %22
  %27 = lshr i32 %23, 22
  %28 = and i32 %27, 127
  %29 = icmp eq i32 %28, 127
  br i1 %29, label %30, label %get_encoding.exit.i.i

30:                                               ; preds = %26
  %31 = tail call i32 @rb_enc_get_index(i64 noundef %0) #29
  br label %get_encoding.exit.i.i

get_encoding.exit.i.i:                            ; preds = %30, %26
  %.0.i.i.i.i = phi i32 [ %31, %30 ], [ %28, %26 ]
  %32 = tail call ptr @rb_enc_from_index(i32 noundef %.0.i.i.i.i) #29
  %33 = load i64, ptr %7, align 8, !tbaa !7, !noalias !514
  %34 = and i64 %33, 8192
  %.not.i.i.i.i.i = icmp eq i64 %34, 0
  br i1 %.not.i.i.i.i.i, label %enc_coderange_scan.exit.i.i, label %35

35:                                               ; preds = %get_encoding.exit.i.i
  %.sroa.2.0.copyload.i.i.i.i = load ptr, ptr %18, align 8
  br label %enc_coderange_scan.exit.i.i

enc_coderange_scan.exit.i.i:                      ; preds = %35, %get_encoding.exit.i.i
  %.sroa.2.0.i.i.i.i = phi ptr [ %.sroa.2.0.copyload.i.i.i.i, %35 ], [ %18, %get_encoding.exit.i.i ]
  %36 = load i64, ptr %20, align 8, !tbaa !12
  %37 = tail call fastcc range(i32 1048576, 3145729) i32 @coderange_scan(ptr noundef %.sroa.2.0.i.i.i.i, i64 noundef %36, ptr noundef %32)
  %38 = load i64, ptr %7, align 8, !tbaa !7
  %39 = and i64 %38, -3145729
  %40 = zext nneg i32 %37 to i64
  %41 = or i64 %39, %40
  store i64 %41, ptr %7, align 8, !tbaa !7
  br label %rb_str_is_ascii_only_p.exit

rb_str_is_ascii_only_p.exit:                      ; preds = %22, %enc_coderange_scan.exit.i.i
  %.0.i.i23 = phi i32 [ %37, %enc_coderange_scan.exit.i.i ], [ %24, %22 ]
  %.not26 = icmp eq i32 %.0.i.i23, 1048576
  br i1 %.not26, label %42, label %sym_printable.exit

42:                                               ; preds = %rb_str_is_ascii_only_p.exit, %RSTRING_PTR.exit
  %43 = tail call i64 @strlen(ptr noundef nonnull dereferenceable(1) %.sroa.2.0.i) #31
  %.not20 = icmp eq i64 %21, %43
  br i1 %.not20, label %44, label %sym_printable.exit

44:                                               ; preds = %42
  %45 = tail call i32 @rb_enc_symname2_p(ptr noundef nonnull %.sroa.2.0.i, i64 noundef %21, ptr noundef %15) #29
  %.not21 = icmp eq i32 %45, 0
  br i1 %.not21, label %sym_printable.exit, label %46

46:                                               ; preds = %44
  %47 = getelementptr i8, ptr %.sroa.2.0.i, i64 %21
  %48 = getelementptr inbounds nuw i8, ptr %15, i64 32
  %49 = icmp ult ptr %.sroa.2.0.i, %47
  br i1 %49, label %.lr.ph.i, label %sym_printable.exit

.lr.ph.i:                                         ; preds = %46
  %50 = getelementptr inbounds nuw i8, ptr %15, i64 88
  br label %51

51:                                               ; preds = %59, %.lr.ph.i
  %.01623.i = phi ptr [ %.sroa.2.0.i, %.lr.ph.i ], [ %61, %59 ]
  %52 = tail call i32 @rb_enc_precise_mbclen(ptr noundef %.01623.i, ptr noundef nonnull %47, ptr noundef %15) #29
  %53 = icmp sgt i32 %52, 0
  br i1 %53, label %54, label %sym_printable.exit

54:                                               ; preds = %51
  %55 = load ptr, ptr %48, align 8, !tbaa !316
  %56 = tail call i32 %55(ptr noundef %.01623.i, ptr noundef nonnull %47, ptr noundef %15) #29
  %57 = load ptr, ptr %50, align 8, !tbaa !317
  %58 = tail call i32 %57(i32 noundef %56, i32 noundef 7, ptr noundef %15) #29
  %.not.i = icmp eq i32 %58, 0
  br i1 %.not.i, label %sym_printable.exit, label %59

59:                                               ; preds = %54
  %60 = zext nneg i32 %52 to i64
  %61 = getelementptr i8, ptr %.01623.i, i64 %60
  %62 = icmp ult ptr %61, %47
  br i1 %62, label %51, label %sym_printable.exit

sym_printable.exit:                               ; preds = %59, %54, %51, %46, %rb_str_is_ascii_only_p.exit, %42, %44
  %.016 = phi i32 [ 0, %44 ], [ 0, %42 ], [ 0, %rb_str_is_ascii_only_p.exit ], [ 1, %46 ], [ 0, %51 ], [ 0, %54 ], [ 1, %59 ]
  ret i32 %.016
}